; Function Attrs: nofree norecurse nosync nounwind memory(readwrite, inaccessiblemem: none) uwtable
define hidden void @ByteBinary1BitToIntArgbConvert(ptr noundef %0, ptr noundef %1, i32 noundef %2, i32 noundef %3, ptr nocapture noundef readonly %4, ptr nocapture noundef readonly %5, ptr nocapture readnone %6, ptr nocapture readnone %7) #0 {
  %9 = getelementptr inbounds i8, ptr %4, i64 40
  %10 = load ptr, ptr %9, align 8
  %11 = getelementptr inbounds i8, ptr %4, i64 32
  %12 = load i32, ptr %11, align 8
  %13 = getelementptr inbounds i8, ptr %5, i64 32
  %14 = load i32, ptr %13, align 8
  %15 = load i32, ptr %4, align 8
  %16 = shl i32 %2, 2
  %17 = sub i32 %14, %16
  %18 = getelementptr inbounds i8, ptr %4, i64 24
  %19 = sext i32 %12 to i64
  %20 = sext i32 %17 to i64
  br label %21

21:                                               ; preds = %53, %8
  %.045 = phi ptr [ %1, %8 ], [ %58, %53 ]
  %.043 = phi ptr [ %0, %8 ], [ %56, %53 ]
  %.0 = phi i32 [ %3, %8 ], [ %59, %53 ]
  %22 = load i32, ptr %18, align 8
  %23 = add nsw i32 %22, %15
  %24 = sdiv i32 %23, 8
  %25 = srem i32 %23, 8
  %26 = sub nsw i32 7, %25
  %27 = sext i32 %24 to i64
  %28 = getelementptr inbounds i8, ptr %.043, i64 %27
  %29 = load i8, ptr %28, align 1
  %30 = zext i8 %29 to i32
  br label %31

31:                                               ; preds = %42, %21
  %.146 = phi ptr [ %.045, %21 ], [ %51, %42 ]
  %.041 = phi i32 [ %24, %21 ], [ %.142, %42 ]
  %.039 = phi i32 [ %26, %21 ], [ %48, %42 ]
  %.038 = phi i32 [ %30, %21 ], [ %.1, %42 ]
  %.037 = phi i32 [ %2, %21 ], [ %52, %42 ]
  %32 = icmp slt i32 %.039, 0
  br i1 %32, label %33, label %42

33:                                               ; preds = %31
  %34 = trunc nuw i32 %.038 to i8
  %35 = sext i32 %.041 to i64
  %36 = getelementptr inbounds i8, ptr %.043, i64 %35
  store i8 %34, ptr %36, align 1
  %37 = add nsw i32 %.041, 1
  %38 = sext i32 %37 to i64
  %39 = getelementptr inbounds i8, ptr %.043, i64 %38
  %40 = load i8, ptr %39, align 1
  %41 = zext i8 %40 to i32
  br label %42

42:                                               ; preds = %33, %31
  %.142 = phi i32 [ %37, %33 ], [ %.041, %31 ]
  %.140 = phi i32 [ 7, %33 ], [ %.039, %31 ]
  %.1 = phi i32 [ %41, %33 ], [ %.038, %31 ]
  %43 = lshr i32 %.1, %.140
  %44 = and i32 %43, 1
  %45 = zext nneg i32 %44 to i64
  %46 = getelementptr inbounds i32, ptr %10, i64 %45
  %47 = load i32, ptr %46, align 4
  store i32 %47, ptr %.146, align 4
  %48 = add nsw i32 %.140, -1
  %49 = ptrtoint ptr %.146 to i64
  %50 = add nsw i64 %49, 4
  %51 = inttoptr i64 %50 to ptr
  %52 = add i32 %.037, -1
  %.not = icmp eq i32 %52, 0
  br i1 %.not, label %53, label %31, !llvm.loop !32

53:                                               ; preds = %42
  %54 = ptrtoint ptr %.043 to i64
  %55 = add nsw i64 %54, %19
  %56 = inttoptr i64 %55 to ptr
  %57 = add nsw i64 %50, %20
  %58 = inttoptr i64 %57 to ptr
  %59 = add i32 %.0, -1
  %.not49 = icmp eq i32 %59, 0
  br i1 %.not49, label %60, label %21, !llvm.loop !33

60:                                               ; preds = %53
  ret void
}